target datalayout = "e-m:e-p270:32:32-p271:32:32-p272:64:64-i64:64-i128:128-f80:128-n8:16:32:64-S128"
target triple = "x86_64-pc-linux-gnu"

; Function Attrs: mustprogress uwtable
define linkonce_odr noundef i64 @_ZN6duckdb11NumericCastImivEET_T0_(i32 noundef %0) #0 comdat {
  %2 = alloca i32, align 4
  store i32 %0, ptr %2, align 4, !tbaa !350
  %3 = load i32, ptr %2, align 4, !tbaa !350
  %4 = call noundef i64 @_ZN6duckdb15NumericCastImplImiLb0EE7ConvertEi(i32 noundef %3)
  ret i64 %4
}

; Function Attrs: inlinehint mustprogress uwtable
define linkonce_odr noundef i64 @_ZN6duckdb20BitpackingPrimitives27RoundUpToAlgorithmGroupSizeImEET_S2_(i64 noundef %0) #4 comdat align 2 {
  %2 = alloca i64, align 8
  %3 = alloca i64, align 8
  %4 = alloca i32, align 4
  %5 = alloca i32, align 4
  store i64 %0, ptr %3, align 8, !tbaa !8
  call void @llvm.lifetime.start.p0(i64 4, ptr %4) #19
  %6 = load i64, ptr %3, align 8, !tbaa !8
  %7 = urem i64 %6, 32
  %8 = trunc i64 %7 to i32
  store i32 %8, ptr %4, align 4, !tbaa !350
  %9 = load i32, ptr %4, align 4, !tbaa !350
  %10 = icmp eq i32 %9, 0
  br i1 %10, label %11, label %13

11:                                               ; preds = %1
  %12 = load i64, ptr %3, align 8, !tbaa !8
  store i64 %12, ptr %2, align 8
  store i32 1, ptr %5, align 4
  br label %19

13:                                               ; preds = %1
  %14 = load i64, ptr %3, align 8, !tbaa !8
  %15 = add i64 %14, 32
  %16 = load i32, ptr %4, align 4, !tbaa !350
  %17 = call noundef i64 @_ZN6duckdb11NumericCastImivEET_T0_(i32 noundef %16)
  %18 = sub i64 %15, %17
  store i64 %18, ptr %2, align 8
  store i32 1, ptr %5, align 4
  br label %19

19:                                               ; preds = %13, %11
  call void @llvm.lifetime.end.p0(i64 4, ptr %4) #19
  %20 = load i64, ptr %2, align 8
  ret i64 %20
}

; Function Attrs: inlinehint mustprogress uwtable
define linkonce_odr noundef i64 @_ZN6duckdb20BitpackingPrimitives15GetRequiredSizeEmh(i64 noundef %0, i8 noundef zeroext %1) #4 comdat align 2 {
  %3 = alloca i64, align 8
  %4 = alloca i8, align 1
  store i64 %0, ptr %3, align 8, !tbaa !8
  store i8 %1, ptr %4, align 1, !tbaa !292
  %5 = load i64, ptr %3, align 8, !tbaa !8
  %6 = call noundef i64 @_ZN6duckdb20BitpackingPrimitives27RoundUpToAlgorithmGroupSizeImEET_S2_(i64 noundef %5)
  store i64 %6, ptr %3, align 8, !tbaa !8
  %7 = load i64, ptr %3, align 8, !tbaa !8
  %8 = load i8, ptr %4, align 1, !tbaa !292
  %9 = zext i8 %8 to i64
  %10 = mul i64 %7, %9
  %11 = udiv i64 %10, 8
  ret i64 %11
}

; Function Attrs: mustprogress uwtable
define noundef i64 @_ZNK6duckdb7roaring27ContainerMetadataCollection15GetMetadataSizeEmmm(ptr noundef nonnull align 8 dereferenceable(96) %0, i64 noundef %1, i64 noundef %2, i64 noundef %3) #0 align 2 {
  %5 = alloca ptr, align 8
  %6 = alloca i64, align 8
  %7 = alloca i64, align 8
  %8 = alloca i64, align 8
  %9 = alloca i64, align 8
  %10 = alloca i64, align 8
  %11 = alloca i64, align 8
  store ptr %0, ptr %5, align 8, !tbaa !285
  store i64 %1, ptr %6, align 8, !tbaa !8
  store i64 %2, ptr %7, align 8, !tbaa !8
  store i64 %3, ptr %8, align 8, !tbaa !8
  call void @llvm.lifetime.start.p0(i64 8, ptr %9) #19
  %12 = load i64, ptr %6, align 8, !tbaa !8
  %13 = call noundef i64 @_ZN6duckdb20BitpackingPrimitives15GetRequiredSizeEmh(i64 noundef %12, i8 noundef zeroext 2)
  store i64 %13, ptr %9, align 8, !tbaa !8
  call void @llvm.lifetime.start.p0(i64 8, ptr %10) #19
  %14 = load i64, ptr %7, align 8, !tbaa !8
  %15 = call noundef i64 @_ZN6duckdb20BitpackingPrimitives15GetRequiredSizeEmh(i64 noundef %14, i8 noundef zeroext 7)
  store i64 %15, ptr %10, align 8, !tbaa !8
  call void @llvm.lifetime.start.p0(i64 8, ptr %11) #19
  %16 = load i64, ptr %8, align 8, !tbaa !8
  %17 = mul i64 1, %16
  store i64 %17, ptr %11, align 8, !tbaa !8
  %18 = load i64, ptr %9, align 8, !tbaa !8
  %19 = load i64, ptr %10, align 8, !tbaa !8
  %20 = add i64 %18, %19
  %21 = load i64, ptr %11, align 8, !tbaa !8
  %22 = add i64 %20, %21
  call void @llvm.lifetime.end.p0(i64 8, ptr %11) #19
  call void @llvm.lifetime.end.p0(i64 8, ptr %10) #19
  call void @llvm.lifetime.end.p0(i64 8, ptr %9) #19
  ret i64 %22
}