; Function Attrs: mustprogress uwtable
define noundef i64 @_ZNK6duckdb7roaring27ContainerMetadataCollection15GetMetadataSizeEmmm(ptr noundef nonnull readnone align 8 captures(none) dereferenceable(96) %0, i64 noundef %1, i64 noundef %2, i64 noundef %3) local_unnamed_addr #0 align 2 {
  %5 = trunc i64 %1 to i32
  %6 = and i32 %5, 31
  %7 = icmp eq i32 %6, 0
  br i1 %7, label %_ZN6duckdb20BitpackingPrimitives15GetRequiredSizeEmh.exit, label %8

8:                                                ; preds = %4
  %9 = add i64 %1, 32
  %10 = tail call noundef i64 @_ZN6duckdb15NumericCastImplImiLb0EE7ConvertEi(i32 noundef %6)
  %11 = sub i64 %9, %10
  br label %_ZN6duckdb20BitpackingPrimitives15GetRequiredSizeEmh.exit

_ZN6duckdb20BitpackingPrimitives15GetRequiredSizeEmh.exit: ; preds = %4, %8
  %.0.i.i = phi i64 [ %11, %8 ], [ %1, %4 ]
  %12 = trunc i64 %2 to i32
  %13 = and i32 %12, 31
  %14 = icmp eq i32 %13, 0
  br i1 %14, label %_ZN6duckdb20BitpackingPrimitives15GetRequiredSizeEmh.exit7, label %15

15:                                               ; preds = %_ZN6duckdb20BitpackingPrimitives15GetRequiredSizeEmh.exit
  %16 = add i64 %2, 32
  %17 = tail call noundef i64 @_ZN6duckdb15NumericCastImplImiLb0EE7ConvertEi(i32 noundef %13)
  %18 = sub i64 %16, %17
  br label %_ZN6duckdb20BitpackingPrimitives15GetRequiredSizeEmh.exit7

_ZN6duckdb20BitpackingPrimitives15GetRequiredSizeEmh.exit7: ; preds = %_ZN6duckdb20BitpackingPrimitives15GetRequiredSizeEmh.exit, %15
  %.0.i.i6 = phi i64 [ %18, %15 ], [ %2, %_ZN6duckdb20BitpackingPrimitives15GetRequiredSizeEmh.exit ]
  %19 = lshr i64 %.0.i.i, 2
  %20 = and i64 %19, 2305843009213693951
  %21 = mul i64 %.0.i.i6, 7
  %22 = lshr i64 %21, 3
  %23 = add i64 %20, %3
  %24 = add i64 %23, %22
  ret i64 %24
}